target datalayout = "e-m:e-p270:32:32-p271:32:32-p272:64:64-i64:64-i128:128-f80:128-n8:16:32:64-S128"
target triple = "x86_64-unknown-linux-gnu"

%struct.geoPoint = type { double, double, double, double, ptr }

; Function Attrs: nounwind uwtable
define internal i32 @sort_gp_asc(ptr noundef %a, ptr noundef %b) #0 {
entry:
  %retval = alloca i32, align 4
  %a.addr = alloca ptr, align 8
  %b.addr = alloca ptr, align 8
  %gpa = alloca ptr, align 8
  %gpb = alloca ptr, align 8
  store ptr %a, ptr %a.addr, align 8
  store ptr %b, ptr %b.addr, align 8
  %0 = load ptr, ptr %a.addr, align 8
  store ptr %0, ptr %gpa, align 8
  %1 = load ptr, ptr %b.addr, align 8
  store ptr %1, ptr %gpb, align 8
  %2 = load ptr, ptr %gpa, align 8
  %dist = getelementptr inbounds %struct.geoPoint, ptr %2, i32 0, i32 2
  %3 = load double, ptr %dist, align 8
  %4 = load ptr, ptr %gpb, align 8
  %dist1 = getelementptr inbounds %struct.geoPoint, ptr %4, i32 0, i32 2
  %5 = load double, ptr %dist1, align 8
  %cmp = fcmp ogt double %3, %5
  br i1 %cmp, label %if.then, label %if.else

if.then:                                          ; preds = %entry
  store i32 1, ptr %retval, align 4
  br label %return

if.else:                                          ; preds = %entry
  %6 = load ptr, ptr %gpa, align 8
  %dist2 = getelementptr inbounds %struct.geoPoint, ptr %6, i32 0, i32 2
  %7 = load double, ptr %dist2, align 8
  %8 = load ptr, ptr %gpb, align 8
  %dist3 = getelementptr inbounds %struct.geoPoint, ptr %8, i32 0, i32 2
  %9 = load double, ptr %dist3, align 8
  %cmp4 = fcmp oeq double %7, %9
  br i1 %cmp4, label %if.then5, label %if.else6

if.then5:                                         ; preds = %if.else
  store i32 0, ptr %retval, align 4
  br label %return

if.else6:                                         ; preds = %if.else
  store i32 -1, ptr %retval, align 4
  br label %return

return:                                           ; preds = %if.else6, %if.then5, %if.then
  %10 = load i32, ptr %retval, align 4
  ret i32 %10
}