; Function Attrs: mustprogress nofree norecurse nosync nounwind willreturn memory(argmem: read) uwtable
define internal i32 @sort_gp_asc(ptr nocapture noundef readonly %a, ptr nocapture noundef readonly %b) #7 {
entry:
  %dist = getelementptr inbounds i8, ptr %a, i64 16
  %0 = load double, ptr %dist, align 8
  %dist1 = getelementptr inbounds i8, ptr %b, i64 16
  %1 = load double, ptr %dist1, align 8
  %cmp = fcmp ogt double %0, %1
  %cmp4 = fcmp une double %0, %1
  %. = sext i1 %cmp4 to i32
  %retval.0 = select i1 %cmp, i32 1, i32 %.
  ret i32 %retval.0
}